(dp0
I0
S'/home/b3053674/Documents/PyCoTools/PyCoTools/Examples/Celliere2011Example/Celliere2011.cps'
p1
sI1
S'/home/b3053674/Documents/PyCoTools/PyCoTools/Examples/Celliere2011Example/Celliere2011_1.cps'
p2
sI2
S'/home/b3053674/Documents/PyCoTools/PyCoTools/Examples/Celliere2011Example/Celliere2011_2.cps'
p3
s.