(dp0
I0
(dp1
S'(phosphorylation of MAPKK).KK3'
p2
S'/home/b3053674/Documents/PyCoTools/PyCoTools/PyCoToolsTutorial/ProfileLikelihood/0/(phosphorylation_of_MAPKK).KK3.cps'
p3
sS'(MAPKKK activation).K1'
p4
S'/home/b3053674/Documents/PyCoTools/PyCoTools/PyCoToolsTutorial/ProfileLikelihood/0/(MAPKKK_activation).K1.cps'
p5
sS'(dephosphorylation of MAPK-PP).V9'
p6
S'/home/b3053674/Documents/PyCoTools/PyCoTools/PyCoToolsTutorial/ProfileLikelihood/0/(dephosphorylation_of_MAPK-PP).V9.cps'
p7
sS'(phosphorylation of MAPK).k7'
p8
S'/home/b3053674/Documents/PyCoTools/PyCoTools/PyCoToolsTutorial/ProfileLikelihood/0/(phosphorylation_of_MAPK).k7.cps'
p9
sS'(phosphorylation of MAPK-P).k8'
p10
S'/home/b3053674/Documents/PyCoTools/PyCoTools/PyCoToolsTutorial/ProfileLikelihood/0/(phosphorylation_of_MAPK-P).k8.cps'
p11
sS'(MAPKKK inactivation).KK2'
p12
S'/home/b3053674/Documents/PyCoTools/PyCoTools/PyCoToolsTutorial/ProfileLikelihood/0/(MAPKKK_inactivation).KK2.cps'
p13
sS'(MAPKKK inactivation).V2'
p14
S'/home/b3053674/Documents/PyCoTools/PyCoTools/PyCoToolsTutorial/ProfileLikelihood/0/(MAPKKK_inactivation).V2.cps'
p15
sS'(phosphorylation of MAPKK).k3'
p16
S'/home/b3053674/Documents/PyCoTools/PyCoTools/PyCoToolsTutorial/ProfileLikelihood/0/(phosphorylation_of_MAPKK).k3.cps'
p17
sS'(phosphorylation of MAPKK-P).k4'
p18
S'/home/b3053674/Documents/PyCoTools/PyCoTools/PyCoToolsTutorial/ProfileLikelihood/0/(phosphorylation_of_MAPKK-P).k4.cps'
p19
sS'(dephosphorylation of MAPKK-PP).KK5'
p20
S'/home/b3053674/Documents/PyCoTools/PyCoTools/PyCoToolsTutorial/ProfileLikelihood/0/(dephosphorylation_of_MAPKK-PP).KK5.cps'
p21
sS'(dephosphorylation of MAPK-PP).KK9'
p22
S'/home/b3053674/Documents/PyCoTools/PyCoTools/PyCoToolsTutorial/ProfileLikelihood/0/(dephosphorylation_of_MAPK-PP).KK9.cps'
p23
sS'(dephosphorylation of MAPKK-P).KK6'
p24
S'/home/b3053674/Documents/PyCoTools/PyCoTools/PyCoToolsTutorial/ProfileLikelihood/0/(dephosphorylation_of_MAPKK-P).KK6.cps'
p25
sS'(phosphorylation of MAPKK-P).KK4'
p26
S'/home/b3053674/Documents/PyCoTools/PyCoTools/PyCoToolsTutorial/ProfileLikelihood/0/(phosphorylation_of_MAPKK-P).KK4.cps'
p27
sS'(MAPKKK activation).V1'
p28
S'/home/b3053674/Documents/PyCoTools/PyCoTools/PyCoToolsTutorial/ProfileLikelihood/0/(MAPKKK_activation).V1.cps'
p29
sS'(MAPKKK activation).Ki'
p30
S'/home/b3053674/Documents/PyCoTools/PyCoTools/PyCoToolsTutorial/ProfileLikelihood/0/(MAPKKK_activation).Ki.cps'
p31
sS'(phosphorylation of MAPK).KK7'
p32
S'/home/b3053674/Documents/PyCoTools/PyCoTools/PyCoToolsTutorial/ProfileLikelihood/0/(phosphorylation_of_MAPK).KK7.cps'
p33
sS'(dephosphorylation of MAPK-P).KK10'
p34
S'/home/b3053674/Documents/PyCoTools/PyCoTools/PyCoToolsTutorial/ProfileLikelihood/0/(dephosphorylation_of_MAPK-P).KK10.cps'
p35
sS'(phosphorylation of MAPK-P).KK8'
p36
S'/home/b3053674/Documents/PyCoTools/PyCoTools/PyCoToolsTutorial/ProfileLikelihood/0/(phosphorylation_of_MAPK-P).KK8.cps'
p37
sS'(dephosphorylation of MAPKK-PP).V5'
p38
S'/home/b3053674/Documents/PyCoTools/PyCoTools/PyCoToolsTutorial/ProfileLikelihood/0/(dephosphorylation_of_MAPKK-PP).V5.cps'
p39
sS'(dephosphorylation of MAPK-P).V10'
p40
S'/home/b3053674/Documents/PyCoTools/PyCoTools/PyCoToolsTutorial/ProfileLikelihood/0/(dephosphorylation_of_MAPK-P).V10.cps'
p41
sS'(dephosphorylation of MAPKK-P).V6'
p42
S'/home/b3053674/Documents/PyCoTools/PyCoTools/PyCoToolsTutorial/ProfileLikelihood/0/(dephosphorylation_of_MAPKK-P).V6.cps'
p43
sS'(MAPKKK activation).n'
p44
S'/home/b3053674/Documents/PyCoTools/PyCoTools/PyCoToolsTutorial/ProfileLikelihood/0/(MAPKKK_activation).n.cps'
p45
ssI1
(dp46
g2
S'/home/b3053674/Documents/PyCoTools/PyCoTools/PyCoToolsTutorial/ProfileLikelihood/1/(phosphorylation_of_MAPKK).KK3.cps'
p47
sg4
S'/home/b3053674/Documents/PyCoTools/PyCoTools/PyCoToolsTutorial/ProfileLikelihood/1/(MAPKKK_activation).K1.cps'
p48
sg6
S'/home/b3053674/Documents/PyCoTools/PyCoTools/PyCoToolsTutorial/ProfileLikelihood/1/(dephosphorylation_of_MAPK-PP).V9.cps'
p49
sg8
S'/home/b3053674/Documents/PyCoTools/PyCoTools/PyCoToolsTutorial/ProfileLikelihood/1/(phosphorylation_of_MAPK).k7.cps'
p50
sg10
S'/home/b3053674/Documents/PyCoTools/PyCoTools/PyCoToolsTutorial/ProfileLikelihood/1/(phosphorylation_of_MAPK-P).k8.cps'
p51
sg12
S'/home/b3053674/Documents/PyCoTools/PyCoTools/PyCoToolsTutorial/ProfileLikelihood/1/(MAPKKK_inactivation).KK2.cps'
p52
sg14
S'/home/b3053674/Documents/PyCoTools/PyCoTools/PyCoToolsTutorial/ProfileLikelihood/1/(MAPKKK_inactivation).V2.cps'
p53
sg16
S'/home/b3053674/Documents/PyCoTools/PyCoTools/PyCoToolsTutorial/ProfileLikelihood/1/(phosphorylation_of_MAPKK).k3.cps'
p54
sg18
S'/home/b3053674/Documents/PyCoTools/PyCoTools/PyCoToolsTutorial/ProfileLikelihood/1/(phosphorylation_of_MAPKK-P).k4.cps'
p55
sg20
S'/home/b3053674/Documents/PyCoTools/PyCoTools/PyCoToolsTutorial/ProfileLikelihood/1/(dephosphorylation_of_MAPKK-PP).KK5.cps'
p56
sg22
S'/home/b3053674/Documents/PyCoTools/PyCoTools/PyCoToolsTutorial/ProfileLikelihood/1/(dephosphorylation_of_MAPK-PP).KK9.cps'
p57
sg24
S'/home/b3053674/Documents/PyCoTools/PyCoTools/PyCoToolsTutorial/ProfileLikelihood/1/(dephosphorylation_of_MAPKK-P).KK6.cps'
p58
sg26
S'/home/b3053674/Documents/PyCoTools/PyCoTools/PyCoToolsTutorial/ProfileLikelihood/1/(phosphorylation_of_MAPKK-P).KK4.cps'
p59
sg28
S'/home/b3053674/Documents/PyCoTools/PyCoTools/PyCoToolsTutorial/ProfileLikelihood/1/(MAPKKK_activation).V1.cps'
p60
sg30
S'/home/b3053674/Documents/PyCoTools/PyCoTools/PyCoToolsTutorial/ProfileLikelihood/1/(MAPKKK_activation).Ki.cps'
p61
sg32
S'/home/b3053674/Documents/PyCoTools/PyCoTools/PyCoToolsTutorial/ProfileLikelihood/1/(phosphorylation_of_MAPK).KK7.cps'
p62
sg34
S'/home/b3053674/Documents/PyCoTools/PyCoTools/PyCoToolsTutorial/ProfileLikelihood/1/(dephosphorylation_of_MAPK-P).KK10.cps'
p63
sg36
S'/home/b3053674/Documents/PyCoTools/PyCoTools/PyCoToolsTutorial/ProfileLikelihood/1/(phosphorylation_of_MAPK-P).KK8.cps'
p64
sg38
S'/home/b3053674/Documents/PyCoTools/PyCoTools/PyCoToolsTutorial/ProfileLikelihood/1/(dephosphorylation_of_MAPKK-PP).V5.cps'
p65
sg40
S'/home/b3053674/Documents/PyCoTools/PyCoTools/PyCoToolsTutorial/ProfileLikelihood/1/(dephosphorylation_of_MAPK-P).V10.cps'
p66
sg42
S'/home/b3053674/Documents/PyCoTools/PyCoTools/PyCoToolsTutorial/ProfileLikelihood/1/(dephosphorylation_of_MAPKK-P).V6.cps'
p67
sg44
S'/home/b3053674/Documents/PyCoTools/PyCoTools/PyCoToolsTutorial/ProfileLikelihood/1/(MAPKKK_activation).n.cps'
p68
ssI2
(dp69
g2
S'/home/b3053674/Documents/PyCoTools/PyCoTools/PyCoToolsTutorial/ProfileLikelihood/2/(phosphorylation_of_MAPKK).KK3.cps'
p70
sg4
S'/home/b3053674/Documents/PyCoTools/PyCoTools/PyCoToolsTutorial/ProfileLikelihood/2/(MAPKKK_activation).K1.cps'
p71
sg6
S'/home/b3053674/Documents/PyCoTools/PyCoTools/PyCoToolsTutorial/ProfileLikelihood/2/(dephosphorylation_of_MAPK-PP).V9.cps'
p72
sg8
S'/home/b3053674/Documents/PyCoTools/PyCoTools/PyCoToolsTutorial/ProfileLikelihood/2/(phosphorylation_of_MAPK).k7.cps'
p73
sg10
S'/home/b3053674/Documents/PyCoTools/PyCoTools/PyCoToolsTutorial/ProfileLikelihood/2/(phosphorylation_of_MAPK-P).k8.cps'
p74
sg12
S'/home/b3053674/Documents/PyCoTools/PyCoTools/PyCoToolsTutorial/ProfileLikelihood/2/(MAPKKK_inactivation).KK2.cps'
p75
sg14
S'/home/b3053674/Documents/PyCoTools/PyCoTools/PyCoToolsTutorial/ProfileLikelihood/2/(MAPKKK_inactivation).V2.cps'
p76
sg16
S'/home/b3053674/Documents/PyCoTools/PyCoTools/PyCoToolsTutorial/ProfileLikelihood/2/(phosphorylation_of_MAPKK).k3.cps'
p77
sg18
S'/home/b3053674/Documents/PyCoTools/PyCoTools/PyCoToolsTutorial/ProfileLikelihood/2/(phosphorylation_of_MAPKK-P).k4.cps'
p78
sg20
S'/home/b3053674/Documents/PyCoTools/PyCoTools/PyCoToolsTutorial/ProfileLikelihood/2/(dephosphorylation_of_MAPKK-PP).KK5.cps'
p79
sg22
S'/home/b3053674/Documents/PyCoTools/PyCoTools/PyCoToolsTutorial/ProfileLikelihood/2/(dephosphorylation_of_MAPK-PP).KK9.cps'
p80
sg24
S'/home/b3053674/Documents/PyCoTools/PyCoTools/PyCoToolsTutorial/ProfileLikelihood/2/(dephosphorylation_of_MAPKK-P).KK6.cps'
p81
sg26
S'/home/b3053674/Documents/PyCoTools/PyCoTools/PyCoToolsTutorial/ProfileLikelihood/2/(phosphorylation_of_MAPKK-P).KK4.cps'
p82
sg28
S'/home/b3053674/Documents/PyCoTools/PyCoTools/PyCoToolsTutorial/ProfileLikelihood/2/(MAPKKK_activation).V1.cps'
p83
sg30
S'/home/b3053674/Documents/PyCoTools/PyCoTools/PyCoToolsTutorial/ProfileLikelihood/2/(MAPKKK_activation).Ki.cps'
p84
sg32
S'/home/b3053674/Documents/PyCoTools/PyCoTools/PyCoToolsTutorial/ProfileLikelihood/2/(phosphorylation_of_MAPK).KK7.cps'
p85
sg34
S'/home/b3053674/Documents/PyCoTools/PyCoTools/PyCoToolsTutorial/ProfileLikelihood/2/(dephosphorylation_of_MAPK-P).KK10.cps'
p86
sg36
S'/home/b3053674/Documents/PyCoTools/PyCoTools/PyCoToolsTutorial/ProfileLikelihood/2/(phosphorylation_of_MAPK-P).KK8.cps'
p87
sg38
S'/home/b3053674/Documents/PyCoTools/PyCoTools/PyCoToolsTutorial/ProfileLikelihood/2/(dephosphorylation_of_MAPKK-PP).V5.cps'
p88
sg40
S'/home/b3053674/Documents/PyCoTools/PyCoTools/PyCoToolsTutorial/ProfileLikelihood/2/(dephosphorylation_of_MAPK-P).V10.cps'
p89
sg42
S'/home/b3053674/Documents/PyCoTools/PyCoTools/PyCoToolsTutorial/ProfileLikelihood/2/(dephosphorylation_of_MAPKK-P).V6.cps'
p90
sg44
S'/home/b3053674/Documents/PyCoTools/PyCoTools/PyCoToolsTutorial/ProfileLikelihood/2/(MAPKKK_activation).n.cps'
p91
ssI3
(dp92
g2
S'/home/b3053674/Documents/PyCoTools/PyCoTools/PyCoToolsTutorial/ProfileLikelihood/3/(phosphorylation_of_MAPKK).KK3.cps'
p93
sg4
S'/home/b3053674/Documents/PyCoTools/PyCoTools/PyCoToolsTutorial/ProfileLikelihood/3/(MAPKKK_activation).K1.cps'
p94
sg6
S'/home/b3053674/Documents/PyCoTools/PyCoTools/PyCoToolsTutorial/ProfileLikelihood/3/(dephosphorylation_of_MAPK-PP).V9.cps'
p95
sg8
S'/home/b3053674/Documents/PyCoTools/PyCoTools/PyCoToolsTutorial/ProfileLikelihood/3/(phosphorylation_of_MAPK).k7.cps'
p96
sg10
S'/home/b3053674/Documents/PyCoTools/PyCoTools/PyCoToolsTutorial/ProfileLikelihood/3/(phosphorylation_of_MAPK-P).k8.cps'
p97
sg12
S'/home/b3053674/Documents/PyCoTools/PyCoTools/PyCoToolsTutorial/ProfileLikelihood/3/(MAPKKK_inactivation).KK2.cps'
p98
sg14
S'/home/b3053674/Documents/PyCoTools/PyCoTools/PyCoToolsTutorial/ProfileLikelihood/3/(MAPKKK_inactivation).V2.cps'
p99
sg16
S'/home/b3053674/Documents/PyCoTools/PyCoTools/PyCoToolsTutorial/ProfileLikelihood/3/(phosphorylation_of_MAPKK).k3.cps'
p100
sg18
S'/home/b3053674/Documents/PyCoTools/PyCoTools/PyCoToolsTutorial/ProfileLikelihood/3/(phosphorylation_of_MAPKK-P).k4.cps'
p101
sg20
S'/home/b3053674/Documents/PyCoTools/PyCoTools/PyCoToolsTutorial/ProfileLikelihood/3/(dephosphorylation_of_MAPKK-PP).KK5.cps'
p102
sg22
S'/home/b3053674/Documents/PyCoTools/PyCoTools/PyCoToolsTutorial/ProfileLikelihood/3/(dephosphorylation_of_MAPK-PP).KK9.cps'
p103
sg24
S'/home/b3053674/Documents/PyCoTools/PyCoTools/PyCoToolsTutorial/ProfileLikelihood/3/(dephosphorylation_of_MAPKK-P).KK6.cps'
p104
sg26
S'/home/b3053674/Documents/PyCoTools/PyCoTools/PyCoToolsTutorial/ProfileLikelihood/3/(phosphorylation_of_MAPKK-P).KK4.cps'
p105
sg28
S'/home/b3053674/Documents/PyCoTools/PyCoTools/PyCoToolsTutorial/ProfileLikelihood/3/(MAPKKK_activation).V1.cps'
p106
sg30
S'/home/b3053674/Documents/PyCoTools/PyCoTools/PyCoToolsTutorial/ProfileLikelihood/3/(MAPKKK_activation).Ki.cps'
p107
sg32
S'/home/b3053674/Documents/PyCoTools/PyCoTools/PyCoToolsTutorial/ProfileLikelihood/3/(phosphorylation_of_MAPK).KK7.cps'
p108
sg34
S'/home/b3053674/Documents/PyCoTools/PyCoTools/PyCoToolsTutorial/ProfileLikelihood/3/(dephosphorylation_of_MAPK-P).KK10.cps'
p109
sg36
S'/home/b3053674/Documents/PyCoTools/PyCoTools/PyCoToolsTutorial/ProfileLikelihood/3/(phosphorylation_of_MAPK-P).KK8.cps'
p110
sg38
S'/home/b3053674/Documents/PyCoTools/PyCoTools/PyCoToolsTutorial/ProfileLikelihood/3/(dephosphorylation_of_MAPKK-PP).V5.cps'
p111
sg40
S'/home/b3053674/Documents/PyCoTools/PyCoTools/PyCoToolsTutorial/ProfileLikelihood/3/(dephosphorylation_of_MAPK-P).V10.cps'
p112
sg42
S'/home/b3053674/Documents/PyCoTools/PyCoTools/PyCoToolsTutorial/ProfileLikelihood/3/(dephosphorylation_of_MAPKK-P).V6.cps'
p113
sg44
S'/home/b3053674/Documents/PyCoTools/PyCoTools/PyCoToolsTutorial/ProfileLikelihood/3/(MAPKKK_activation).n.cps'
p114
ssI4
(dp115
g2
S'/home/b3053674/Documents/PyCoTools/PyCoTools/PyCoToolsTutorial/ProfileLikelihood/4/(phosphorylation_of_MAPKK).KK3.cps'
p116
sg4
S'/home/b3053674/Documents/PyCoTools/PyCoTools/PyCoToolsTutorial/ProfileLikelihood/4/(MAPKKK_activation).K1.cps'
p117
sg6
S'/home/b3053674/Documents/PyCoTools/PyCoTools/PyCoToolsTutorial/ProfileLikelihood/4/(dephosphorylation_of_MAPK-PP).V9.cps'
p118
sg8
S'/home/b3053674/Documents/PyCoTools/PyCoTools/PyCoToolsTutorial/ProfileLikelihood/4/(phosphorylation_of_MAPK).k7.cps'
p119
sg10
S'/home/b3053674/Documents/PyCoTools/PyCoTools/PyCoToolsTutorial/ProfileLikelihood/4/(phosphorylation_of_MAPK-P).k8.cps'
p120
sg12
S'/home/b3053674/Documents/PyCoTools/PyCoTools/PyCoToolsTutorial/ProfileLikelihood/4/(MAPKKK_inactivation).KK2.cps'
p121
sg14
S'/home/b3053674/Documents/PyCoTools/PyCoTools/PyCoToolsTutorial/ProfileLikelihood/4/(MAPKKK_inactivation).V2.cps'
p122
sg16
S'/home/b3053674/Documents/PyCoTools/PyCoTools/PyCoToolsTutorial/ProfileLikelihood/4/(phosphorylation_of_MAPKK).k3.cps'
p123
sg18
S'/home/b3053674/Documents/PyCoTools/PyCoTools/PyCoToolsTutorial/ProfileLikelihood/4/(phosphorylation_of_MAPKK-P).k4.cps'
p124
sg20
S'/home/b3053674/Documents/PyCoTools/PyCoTools/PyCoToolsTutorial/ProfileLikelihood/4/(dephosphorylation_of_MAPKK-PP).KK5.cps'
p125
sg22
S'/home/b3053674/Documents/PyCoTools/PyCoTools/PyCoToolsTutorial/ProfileLikelihood/4/(dephosphorylation_of_MAPK-PP).KK9.cps'
p126
sg24
S'/home/b3053674/Documents/PyCoTools/PyCoTools/PyCoToolsTutorial/ProfileLikelihood/4/(dephosphorylation_of_MAPKK-P).KK6.cps'
p127
sg26
S'/home/b3053674/Documents/PyCoTools/PyCoTools/PyCoToolsTutorial/ProfileLikelihood/4/(phosphorylation_of_MAPKK-P).KK4.cps'
p128
sg28
S'/home/b3053674/Documents/PyCoTools/PyCoTools/PyCoToolsTutorial/ProfileLikelihood/4/(MAPKKK_activation).V1.cps'
p129
sg30
S'/home/b3053674/Documents/PyCoTools/PyCoTools/PyCoToolsTutorial/ProfileLikelihood/4/(MAPKKK_activation).Ki.cps'
p130
sg32
S'/home/b3053674/Documents/PyCoTools/PyCoTools/PyCoToolsTutorial/ProfileLikelihood/4/(phosphorylation_of_MAPK).KK7.cps'
p131
sg34
S'/home/b3053674/Documents/PyCoTools/PyCoTools/PyCoToolsTutorial/ProfileLikelihood/4/(dephosphorylation_of_MAPK-P).KK10.cps'
p132
sg36
S'/home/b3053674/Documents/PyCoTools/PyCoTools/PyCoToolsTutorial/ProfileLikelihood/4/(phosphorylation_of_MAPK-P).KK8.cps'
p133
sg38
S'/home/b3053674/Documents/PyCoTools/PyCoTools/PyCoToolsTutorial/ProfileLikelihood/4/(dephosphorylation_of_MAPKK-PP).V5.cps'
p134
sg40
S'/home/b3053674/Documents/PyCoTools/PyCoTools/PyCoToolsTutorial/ProfileLikelihood/4/(dephosphorylation_of_MAPK-P).V10.cps'
p135
sg42
S'/home/b3053674/Documents/PyCoTools/PyCoTools/PyCoToolsTutorial/ProfileLikelihood/4/(dephosphorylation_of_MAPKK-P).V6.cps'
p136
sg44
S'/home/b3053674/Documents/PyCoTools/PyCoTools/PyCoToolsTutorial/ProfileLikelihood/4/(MAPKKK_activation).n.cps'
p137
ss.