(dp0
I0
S'C:\\Users\\Ciaran\\Documents\\PyCoTools\\PyCoTools\\PyCoToolsTutorial\\Kholodenko.cps'
p1
sI1
S'C:\\Users\\Ciaran\\Documents\\PyCoTools\\PyCoTools\\PyCoToolsTutorial\\Kholodenko_1.cps'
p2
sI2
S'C:\\Users\\Ciaran\\Documents\\PyCoTools\\PyCoTools\\PyCoToolsTutorial\\Kholodenko_2.cps'
p3
sI3
S'C:\\Users\\Ciaran\\Documents\\PyCoTools\\PyCoTools\\PyCoToolsTutorial\\Kholodenko_3.cps'
p4
s.