(dp0
I0
S'/home/b3053674/Documents/PyCoTools/PyCoTools/PyCoToolsTutorial/kholodenko_model.cps'
p1
sI1
S'/home/b3053674/Documents/PyCoTools/PyCoTools/PyCoToolsTutorial/kholodenko_model_1.cps'
p2
sI2
S'/home/b3053674/Documents/PyCoTools/PyCoTools/PyCoToolsTutorial/kholodenko_model_2.cps'
p3
sI3
S'/home/b3053674/Documents/PyCoTools/PyCoTools/PyCoToolsTutorial/kholodenko_model_3.cps'
p4
sI4
S'/home/b3053674/Documents/PyCoTools/PyCoTools/PyCoToolsTutorial/kholodenko_model_4.cps'
p5
sI5
S'/home/b3053674/Documents/PyCoTools/PyCoTools/PyCoToolsTutorial/kholodenko_model_5.cps'
p6
s.