(dp0
I0
S'/home/b3053674/Documents/PyCoTools/PyCoTools/PyCoToolsTutorial/Kholodenko.cps'
p1
sI1
S'/home/b3053674/Documents/PyCoTools/PyCoTools/PyCoToolsTutorial/Kholodenko_1.cps'
p2
sI2
S'/home/b3053674/Documents/PyCoTools/PyCoTools/PyCoToolsTutorial/Kholodenko_2.cps'
p3
s.