(dp0
I0
S'/home/b3053674/Documents/PyCoTools/PyCoTools/PyCoToolsTutorial/kholodenko_model.cps'
p1
sI1
S'/home/b3053674/Documents/PyCoTools/PyCoTools/PyCoToolsTutorial/kholodenko_model_1.cps'
p2
sI2
S'/home/b3053674/Documents/PyCoTools/PyCoTools/PyCoToolsTutorial/kholodenko_model_2.cps'
p3
sI3
S'/home/b3053674/Documents/PyCoTools/PyCoTools/PyCoToolsTutorial/kholodenko_model_3.cps'
p4
sI4
S'/home/b3053674/Documents/PyCoTools/PyCoTools/PyCoToolsTutorial/kholodenko_model_4.cps'
p5
sI5
S'/home/b3053674/Documents/PyCoTools/PyCoTools/PyCoToolsTutorial/kholodenko_model_5.cps'
p6
sI6
S'/home/b3053674/Documents/PyCoTools/PyCoTools/PyCoToolsTutorial/kholodenko_model_6.cps'
p7
sI7
S'/home/b3053674/Documents/PyCoTools/PyCoTools/PyCoToolsTutorial/kholodenko_model_7.cps'
p8
sI8
S'/home/b3053674/Documents/PyCoTools/PyCoTools/PyCoToolsTutorial/kholodenko_model_8.cps'
p9
sI9
S'/home/b3053674/Documents/PyCoTools/PyCoTools/PyCoToolsTutorial/kholodenko_model_9.cps'
p10
sI10
S'/home/b3053674/Documents/PyCoTools/PyCoTools/PyCoToolsTutorial/kholodenko_model_10.cps'
p11
sI11
S'/home/b3053674/Documents/PyCoTools/PyCoTools/PyCoToolsTutorial/kholodenko_model_11.cps'
p12
s.