(dp0
I0
S'C:\\Users\\Ciaran\\Documents\\PyCoTools\\PyCoTools\\PyCoToolsTutorial\\Kholodenko.cps'
p1
sI1
S'C:\\Users\\Ciaran\\Documents\\PyCoTools\\PyCoTools\\PyCoToolsTutorial\\Kholodenko_1.cps'
p2
s.